

Microchip Technology PIC LITE Macro Assembler V1.40 build -251452761 
                                                                                               Fri May 05 22:53:15 2017

Microchip Technology Omniscient Code Generator v1.40 (Free mode) build 201612010151
     1                           	processor	16F877
     2                           	opt	pw 120
     3                           	opt	lm
     4                           	psect	cinit,global,class=CODE,merge=1,delta=2
     5                           	psect	cstackBANK1,global,class=BANK1,space=1,delta=1
     6                           	psect	cstackCOMMON,global,class=COMMON,space=1,delta=1
     7                           	psect	cstackBANK0,global,class=BANK0,space=1,delta=1
     8                           	psect	maintext,global,class=CODE,split=1,delta=2
     9                           	psect	text1,local,class=CODE,merge=1,delta=2
    10                           	psect	text2,local,class=CODE,merge=1,delta=2
    11                           	psect	intentry,global,class=CODE,delta=2
    12                           	psect	text3,local,class=CODE,merge=1,delta=2
    13                           	psect	text4,local,class=CODE,merge=1,delta=2
    14                           	psect	text5,local,class=CODE,merge=1,delta=2
    15                           	dabs	1,0x7E,2
    16  0000                     
    17                           ; Version 1.40
    18                           ; Generated 01/12/2016 GMT
    19                           ; 
    20                           ; Copyright © 2016, Microchip Technology Inc. and its subsidiaries ("Microchip")
    21                           ; All rights reserved.
    22                           ; 
    23                           ; This software is developed by Microchip Technology Inc. and its subsidiaries ("Microch
      +                          ip").
    24                           ; 
    25                           ; Redistribution and use in source and binary forms, with or without modification, are
    26                           ; permitted provided that the following conditions are met:
    27                           ; 
    28                           ;     1. Redistributions of source code must retain the above copyright notice, this lis
      +                          t of
    29                           ;        conditions and the following disclaimer.
    30                           ; 
    31                           ;     2. Redistributions in binary form must reproduce the above copyright notice, this 
      +                          list
    32                           ;        of conditions and the following disclaimer in the documentation and/or other
    33                           ;        materials provided with the distribution.
    34                           ; 
    35                           ;     3. Microchip's name may not be used to endorse or promote products derived from th
      +                          is
    36                           ;        software without specific prior written permission.
    37                           ; 
    38                           ; THIS SOFTWARE IS PROVIDED BY MICROCHIP "AS IS" AND ANY EXPRESS OR IMPLIED WARRANTIES,
    39                           ; INCLUDING, BUT NOT LIMITED TO, THE IMPLIED WARRANTIES OF MERCHANTABILITY AND FITNESS F
      +                          OR
    40                           ; PURPOSE ARE DISCLAIMED.  IN NO EVENT SHALL MICROCHIP BE LIABLE FOR ANY DIRECT, INDIREC
      +                          T,
    41                           ; INCIDENTAL, SPECIAL, EXEMPLARY, OR CONSEQUENTIAL DAMAGES (INCLUDING BUT NOT LIMITED TO
    42                           ; PROCUREMENT OF SUBSTITUTE GOODS OR SERVICES; LOSS OF USE, DATA OR PROFITS; OR BUSINESS
    43                           ; INTERRUPTION) HOWSOEVER CAUSED AND ON ANY THEORY OF LIABILITY, WHETHER IN CONTRACT, ST
      +                          RICT
    44                           ; LIABILITY, OR TORT (INCLUDING NEGLIGENCE OR OTHERWISE) ARISING IN ANY WAY OUT OF THE U
      +                          SE OF
    45                           ; THIS SOFTWARE, EVEN IF ADVISED OF THE POSSIBILITY OF SUCH DAMAGE.
    46                           ; 
    47                           ; 
    48                           ; Code-generator required, PIC16F877 Definitions
    49                           ; 
    50                           ; SFR Addresses
    51  0000                     	;# 
    52  0001                     	;# 
    53  0002                     	;# 
    54  0003                     	;# 
    55  0004                     	;# 
    56  0005                     	;# 
    57  0006                     	;# 
    58  0007                     	;# 
    59  0008                     	;# 
    60  0009                     	;# 
    61  000A                     	;# 
    62  000B                     	;# 
    63  000C                     	;# 
    64  000D                     	;# 
    65  000E                     	;# 
    66  000E                     	;# 
    67  000F                     	;# 
    68  0010                     	;# 
    69  0011                     	;# 
    70  0012                     	;# 
    71  0013                     	;# 
    72  0014                     	;# 
    73  0015                     	;# 
    74  0015                     	;# 
    75  0016                     	;# 
    76  0017                     	;# 
    77  0018                     	;# 
    78  0019                     	;# 
    79  001A                     	;# 
    80  001B                     	;# 
    81  001B                     	;# 
    82  001C                     	;# 
    83  001D                     	;# 
    84  001E                     	;# 
    85  001F                     	;# 
    86  0081                     	;# 
    87  0085                     	;# 
    88  0086                     	;# 
    89  0087                     	;# 
    90  0088                     	;# 
    91  0089                     	;# 
    92  008C                     	;# 
    93  008D                     	;# 
    94  008E                     	;# 
    95  0091                     	;# 
    96  0092                     	;# 
    97  0093                     	;# 
    98  0094                     	;# 
    99  0098                     	;# 
   100  0099                     	;# 
   101  009E                     	;# 
   102  009F                     	;# 
   103  010C                     	;# 
   104  010D                     	;# 
   105  010E                     	;# 
   106  010F                     	;# 
   107  018C                     	;# 
   108  018D                     	;# 
   109  000B                     _INTCON	set	11
   110  000B                     _INTCONbits	set	11
   111  0005                     _PORTA	set	5
   112  0008                     _PORTD	set	8
   113  0059                     _INTF	set	89
   114  0031                     _RB1	set	49
   115  0032                     _RB2	set	50
   116  0033                     _RB3	set	51
   117  0034                     _RB4	set	52
   118  0035                     _RB5	set	53
   119  0036                     _RB6	set	54
   120  0037                     _RB7	set	55
   121  0038                     _RC0	set	56
   122  0039                     _RC1	set	57
   123  003A                     _RC2	set	58
   124  003B                     _RC3	set	59
   125  003C                     _RC4	set	60
   126  003D                     _RC5	set	61
   127  003E                     _RC6	set	62
   128  003F                     _RC7	set	63
   129  0048                     _RE0	set	72
   130  0049                     _RE1	set	73
   131  0085                     _TRISA	set	133
   132  0086                     _TRISB	set	134
   133  0087                     _TRISC	set	135
   134  0088                     _TRISD	set	136
   135  0089                     _TRISE	set	137
   136                           
   137                           	psect	cinit
   138  0015                     start_initialization:	
   139                           ; #config settings
   140                           
   141  0015                     __initialization:	
   142  0015                     end_of_initialization:	
   143                           ;End of C runtime variable initialization code
   144                           
   145  0015                     __end_of__initialization:	
   146  0015  0183               	clrf	3
   147  0016  120A  118A  2B16   	ljmp	_main	;jump to C main() function
   148                           
   149                           	psect	cstackBANK1
   150  00A0                     __pcstackBANK1:	
   151  00A0                     abc@tab2:	
   152                           
   153                           ; 30 bytes @ 0x0
   154  00A0                     	ds	30
   155  00BE                     abc@j:	
   156                           
   157                           ; 2 bytes @ 0x1E
   158  00BE                     	ds	2
   159  00C0                     abc@im:	
   160                           
   161                           ; 2 bytes @ 0x20
   162  00C0                     	ds	2
   163  00C2                     abc@tab1:	
   164                           
   165                           ; 30 bytes @ 0x22
   166  00C2                     	ds	30
   167  00E0                     abc@v:	
   168                           
   169                           ; 2 bytes @ 0x40
   170  00E0                     	ds	2
   171  00E2                     abc@min:	
   172                           
   173                           ; 2 bytes @ 0x42
   174  00E2                     	ds	2
   175  00E4                     abc@q:	
   176                           
   177                           ; 2 bytes @ 0x44
   178  00E4                     	ds	2
   179  00E6                     abc@i:	
   180                           
   181                           ; 2 bytes @ 0x46
   182  00E6                     	ds	2
   183                           
   184                           	psect	cstackCOMMON
   185  0070                     __pcstackCOMMON:	
   186  0070                     ?_afficher:	
   187  0070                     ?_attente:	
   188                           ; 1 bytes @ 0x0
   189                           
   190  0070                     ?_abc:	
   191                           ; 1 bytes @ 0x0
   192                           
   193  0070                     ?_main:	
   194                           ; 1 bytes @ 0x0
   195                           
   196  0070                     ?i1_attente:	
   197                           ; 1 bytes @ 0x0
   198                           
   199  0070                     ??i1_attente:	
   200                           ; 1 bytes @ 0x0
   201                           
   202  0070                     ?_selection:	
   203                           ; 1 bytes @ 0x0
   204                           
   205  0070                     selection@tab2:	
   206                           ; 2 bytes @ 0x0
   207                           
   208  0070                     afficher@im:	
   209                           ; 1 bytes @ 0x0
   210                           
   211  0070                     i1attente@i:	
   212                           ; 2 bytes @ 0x0
   213                           
   214                           
   215                           ; 2 bytes @ 0x0
   216  0070                     	ds	2
   217  0072                     ??_selection:	
   218  0072                     ??_afficher:	
   219                           ; 1 bytes @ 0x2
   220                           
   221  0072                     i1attente@j:	
   222                           ; 1 bytes @ 0x2
   223                           
   224                           
   225                           ; 2 bytes @ 0x2
   226  0072                     	ds	9
   227                           
   228                           	psect	cstackBANK0
   229  0020                     __pcstackBANK0:	
   230  0020                     selection@tab1:	
   231                           
   232                           ; 1 bytes @ 0x0
   233  0020                     	ds	1
   234  0021                     selection@min:	
   235                           
   236                           ; 2 bytes @ 0x1
   237  0021                     	ds	2
   238  0023                     selection@i:	
   239                           
   240                           ; 2 bytes @ 0x3
   241  0023                     	ds	2
   242  0025                     ??_abc:	
   243                           
   244                           ; 1 bytes @ 0x5
   245  0025                     	ds	10
   246  002F                     ??_attente:	
   247  002F                     attente@i:	
   248                           ; 1 bytes @ 0xF
   249                           
   250                           
   251                           ; 2 bytes @ 0xF
   252  002F                     	ds	2
   253  0031                     attente@j:	
   254                           
   255                           ; 2 bytes @ 0x11
   256  0031                     	ds	2
   257  0033                     ??_main:	
   258  0033                     main@k:	
   259                           ; 1 bytes @ 0x13
   260                           
   261                           
   262                           ; 2 bytes @ 0x13
   263  0033                     	ds	2
   264                           
   265                           	psect	maintext
   266  0316                     __pmaintext:	
   267 ;;
   268 ;;Main: autosize = 0, tempsize = 0, incstack = 0, save=0
   269 ;;
   270 ;; *************** function _main *****************
   271 ;; Defined at:
   272 ;;		line 238 in file "newmain55.c"
   273 ;; Parameters:    Size  Location     Type
   274 ;;		None
   275 ;; Auto vars:     Size  Location     Type
   276 ;;  k               2   19[BANK0 ] int 
   277 ;; Return value:  Size  Location     Type
   278 ;;                  1    wreg      void 
   279 ;; Registers used:
   280 ;;		wreg, status,2, status,0, btemp+1, pclath, cstack
   281 ;; Tracked objects:
   282 ;;		On entry : B00/0
   283 ;;		On exit  : 0/0
   284 ;;		Unchanged: 0/0
   285 ;; Data sizes:     COMMON   BANK0   BANK1   BANK3   BANK2
   286 ;;      Params:         0       0       0       0       0
   287 ;;      Locals:         0       2       0       0       0
   288 ;;      Temps:          0       0       0       0       0
   289 ;;      Totals:         0       2       0       0       0
   290 ;;Total ram usage:        2 bytes
   291 ;; Hardware stack levels required when called:    3
   292 ;; This function calls:
   293 ;;		_attente
   294 ;; This function is called by:
   295 ;;		Startup code after reset
   296 ;; This function uses a non-reentrant model
   297 ;;
   298                           
   299                           
   300                           ;psect for function _main
   301  0316                     _main:	
   302                           
   303                           ;newmain55.c: 240: TRISA = 0X00;
   304                           
   305                           ;incstack = 0
   306                           ; Regs used in _main: [wreg+status,2+status,0+btemp+1+pclath+cstack]
   307  0316  1683               	bsf	3,5	;RP0=1, select bank1
   308  0317  1303               	bcf	3,6	;RP1=0, select bank1
   309  0318  0185               	clrf	5	;volatile
   310                           
   311                           ;newmain55.c: 241: TRISB = 0xff;
   312  0319  30FF               	movlw	255
   313  031A  0086               	movwf	6	;volatile
   314                           
   315                           ;newmain55.c: 242: TRISC = 0xff;
   316  031B  30FF               	movlw	255
   317  031C  0087               	movwf	7	;volatile
   318                           
   319                           ;newmain55.c: 243: TRISE = 0x00;
   320  031D  0189               	clrf	9	;volatile
   321                           
   322                           ;newmain55.c: 246: TRISD = 0X00;
   323  031E  0188               	clrf	8	;volatile
   324                           
   325                           ;newmain55.c: 247: INTCON = 0x90;
   326  031F  3090               	movlw	144
   327  0320  008B               	movwf	11	;volatile
   328                           
   329                           ;newmain55.c: 248: PORTA=0x00;
   330  0321  1283               	bcf	3,5	;RP0=0, select bank0
   331  0322  1303               	bcf	3,6	;RP1=0, select bank0
   332  0323  0185               	clrf	5	;volatile
   333                           
   334                           ;newmain55.c: 250: INTCONbits.GIE=1;
   335  0324  178B               	bsf	11,7	;volatile
   336                           
   337                           ;newmain55.c: 251: INTCONbits.T0IE=0;
   338  0325  128B               	bcf	11,5	;volatile
   339                           
   340                           ;newmain55.c: 252: INTCONbits.INTE=1;
   341  0326  160B               	bsf	11,4	;volatile
   342                           
   343                           ;newmain55.c: 253: INTCONbits.INTF =0;
   344  0327  108B               	bcf	11,1	;volatile
   345                           
   346                           ;newmain55.c: 261: int k=0;
   347  0328  01B3               	clrf	main@k
   348  0329  01B4               	clrf	main@k+1
   349                           
   350                           ;newmain55.c: 262: PORTD= 0x00;
   351  032A  0188               	clrf	8	;volatile
   352                           
   353                           ;newmain55.c: 264: RE0=1;
   354  032B  1409               	bsf	9,0	;volatile
   355  032C                     l1121:	
   356                           ;newmain55.c: 266: while(1)
   357                           
   358                           
   359                           ;newmain55.c: 267: {
   360                           ;newmain55.c: 271: attente ();
   361  032C  120A  118A  22A2  120A  118A  	fcall	_attente
   362  0331  2B2C               	goto	l1121
   363  0332                     __end_of_main:	
   364                           
   365                           	psect	text1
   366  02A2                     __ptext1:	
   367 ;; *************** function _attente *****************
   368 ;; Defined at:
   369 ;;		line 91 in file "newmain55.c"
   370 ;; Parameters:    Size  Location     Type
   371 ;;		None
   372 ;; Auto vars:     Size  Location     Type
   373 ;;  j               2   17[BANK0 ] int 
   374 ;;  i               2   15[BANK0 ] int 
   375 ;; Return value:  Size  Location     Type
   376 ;;                  1    wreg      void 
   377 ;; Registers used:
   378 ;;		wreg, status,2, btemp+1
   379 ;; Tracked objects:
   380 ;;		On entry : 0/0
   381 ;;		On exit  : 0/0
   382 ;;		Unchanged: 0/0
   383 ;; Data sizes:     COMMON   BANK0   BANK1   BANK3   BANK2
   384 ;;      Params:         0       0       0       0       0
   385 ;;      Locals:         0       4       0       0       0
   386 ;;      Temps:          0       0       0       0       0
   387 ;;      Totals:         0       4       0       0       0
   388 ;;Total ram usage:        4 bytes
   389 ;; Hardware stack levels used:    1
   390 ;; Hardware stack levels required when called:    2
   391 ;; This function calls:
   392 ;;		Nothing
   393 ;; This function is called by:
   394 ;;		_main
   395 ;; This function uses a non-reentrant model
   396 ;;
   397                           
   398                           
   399                           ;psect for function _attente
   400  02A2                     _attente:	
   401                           
   402                           ;incstack = 0
   403                           ; Regs used in _attente: [wreg+status,2+btemp+1]
   404  02A2  1283               	bcf	3,5	;RP0=0, select bank0
   405  02A3  1303               	bcf	3,6	;RP1=0, select bank0
   406  02A4  01AF               	clrf	attente@i
   407  02A5  01B0               	clrf	attente@i+1
   408  02A6  01B1               	clrf	attente@j
   409  02A7  01B2               	clrf	attente@j+1
   410                           
   411                           ;newmain55.c: 93: for ( i=0; i<255;i++)
   412  02A8  01AF               	clrf	attente@i
   413  02A9  01B0               	clrf	attente@i+1
   414  02AA                     L1:	
   415  02AA  0830               	movf	attente@i+1,w
   416  02AB  3A80               	xorlw	128
   417  02AC  00FF               	movwf	127
   418  02AD  3080               	movlw	128
   419  02AE  027F               	subwf	127,w
   420  02AF  1D03               	skipz
   421  02B0  2AB3               	goto	u395
   422  02B1  30FF               	movlw	255
   423  02B2  022F               	subwf	attente@i,w
   424  02B3                     u395:	
   425  02B3  1803               	btfsc	3,0
   426  02B4  0008               	return
   427                           
   428                           ;newmain55.c: 94: {
   429                           ;newmain55.c: 95: for ( j=0; j<100;j++)
   430  02B5  1283               	bcf	3,5	;RP0=0, select bank0
   431  02B6  1303               	bcf	3,6	;RP1=0, select bank0
   432  02B7  01B1               	clrf	attente@j
   433  02B8  01B2               	clrf	attente@j+1
   434  02B9  0832               	movf	attente@j+1,w
   435  02BA  3A80               	xorlw	128
   436  02BB  00FF               	movwf	127
   437  02BC  3080               	movlw	128
   438  02BD  027F               	subwf	127,w
   439  02BE  1D03               	skipz
   440  02BF  2AC2               	goto	u405
   441  02C0  3064               	movlw	100
   442  02C1  0231               	subwf	attente@j,w
   443  02C2                     u405:	
   444  02C2  1803               	btfsc	3,0
   445  02C3  2AD7               	goto	l957
   446  02C4                     l953:	
   447                           
   448                           ;newmain55.c: 96: {
   449  02C4  3001               	movlw	1
   450  02C5  1283               	bcf	3,5	;RP0=0, select bank0
   451  02C6  1303               	bcf	3,6	;RP1=0, select bank0
   452  02C7  07B1               	addwf	attente@j,f
   453  02C8  1803               	skipnc
   454  02C9  0AB2               	incf	attente@j+1,f
   455  02CA  3000               	movlw	0
   456  02CB  07B2               	addwf	attente@j+1,f
   457  02CC  0832               	movf	attente@j+1,w
   458  02CD  3A80               	xorlw	128
   459  02CE  00FF               	movwf	127
   460  02CF  3080               	movlw	128
   461  02D0  027F               	subwf	127,w
   462  02D1  1D03               	skipz
   463  02D2  2AD5               	goto	u415
   464  02D3  3064               	movlw	100
   465  02D4  0231               	subwf	attente@j,w
   466  02D5                     u415:	
   467  02D5  1C03               	skipc
   468  02D6  2AC4               	goto	l953
   469  02D7                     l957:	
   470  02D7  3001               	movlw	1
   471  02D8  1283               	bcf	3,5	;RP0=0, select bank0
   472  02D9  1303               	bcf	3,6	;RP1=0, select bank0
   473  02DA  07AF               	addwf	attente@i,f
   474  02DB  1803               	skipnc
   475  02DC  0AB0               	incf	attente@i+1,f
   476  02DD  3000               	movlw	0
   477  02DE  07B0               	addwf	attente@i+1,f
   478  02DF  2AAA               	goto	L1
   479  02E0                     __end_of_attente:	
   480                           
   481                           	psect	text2
   482  0019                     __ptext2:	
   483 ;; *************** function _abc *****************
   484 ;; Defined at:
   485 ;;		line 104 in file "newmain55.c"
   486 ;; Parameters:    Size  Location     Type
   487 ;;		None
   488 ;; Auto vars:     Size  Location     Type
   489 ;;  tab1           30   34[BANK1 ] int [15]
   490 ;;  tab2           30    0[BANK1 ] int [15]
   491 ;;  i               2   70[BANK1 ] int 
   492 ;;  q               2   68[BANK1 ] int 
   493 ;;  min             2   66[BANK1 ] int 
   494 ;;  v               2   64[BANK1 ] int 
   495 ;;  im              2   32[BANK1 ] int 
   496 ;;  j               2   30[BANK1 ] int 
   497 ;; Return value:  Size  Location     Type
   498 ;;                  1    wreg      void 
   499 ;; Registers used:
   500 ;;		wreg, fsr0l, fsr0h, status,2, status,0, btemp+1, pclath, cstack
   501 ;; Tracked objects:
   502 ;;		On entry : 0/0
   503 ;;		On exit  : 0/0
   504 ;;		Unchanged: 0/0
   505 ;; Data sizes:     COMMON   BANK0   BANK1   BANK3   BANK2
   506 ;;      Params:         0       0       0       0       0
   507 ;;      Locals:         0       0      72       0       0
   508 ;;      Temps:          0      10       0       0       0
   509 ;;      Totals:         0      10      72       0       0
   510 ;;Total ram usage:       82 bytes
   511 ;; Hardware stack levels used:    1
   512 ;; Hardware stack levels required when called:    1
   513 ;; This function calls:
   514 ;;		_afficher
   515 ;;		_selection
   516 ;;		i1_attente
   517 ;; This function is called by:
   518 ;;		Interrupt level 1
   519 ;; This function uses a non-reentrant model
   520 ;;
   521                           
   522                           
   523                           ;psect for function _abc
   524  0019                     _abc:	
   525                           
   526                           ;newmain55.c: 106: if (INTCONbits.INTF == 1)
   527  0019  1C8B               	btfss	11,1	;volatile
   528  001A  298F               	goto	i1l113
   529                           
   530                           ;newmain55.c: 107: {
   531                           ;newmain55.c: 108: INTCON,INTF = 0;
   532  001B  080B               	movf	11,w	;volatile
   533  001C  108B               	bcf	11,1	;volatile
   534                           
   535                           ;newmain55.c: 110: RE1=1;
   536  001D  1489               	bsf	9,1	;volatile
   537                           
   538                           ;newmain55.c: 112: int tab1[15];
   539                           ;newmain55.c: 113: int tab2[15];
   540                           ;newmain55.c: 114: int v ;
   541                           ;newmain55.c: 115: for (v=0;v<15;v++)
   542  001E  1683               	bsf	3,5	;RP0=1, select bank1
   543  001F  1303               	bcf	3,6	;RP1=0, select bank1
   544  0020  01E0               	clrf	abc@v^(0+128)
   545  0021  01E1               	clrf	(abc@v+1)^(0+128)
   546  0022  0861               	movf	(abc@v+1)^(0+128),w
   547  0023  3A80               	xorlw	128
   548  0024  00FF               	movwf	127
   549  0025  3080               	movlw	128
   550  0026  027F               	subwf	127,w
   551  0027  1D03               	skipz
   552  0028  282B               	goto	u48_25
   553  0029  300F               	movlw	15
   554  002A  0260               	subwf	abc@v^(0+128),w
   555  002B                     u48_25:	
   556  002B  1803               	btfsc	3,0
   557  002C  284D               	goto	i1l1001
   558  002D                     i1l995:	
   559                           
   560                           ;newmain55.c: 116: {
   561                           ;newmain55.c: 117: tab1[v]=0;
   562  002D  1683               	bsf	3,5	;RP0=1, select bank1
   563  002E  1303               	bcf	3,6	;RP1=0, select bank1
   564  002F  0860               	movf	abc@v^(0+128),w
   565  0030  1283               	bcf	3,5	;RP0=0, select bank0
   566  0031  1303               	bcf	3,6	;RP1=0, select bank0
   567  0032  00A5               	movwf	??_abc
   568  0033  0725               	addwf	??_abc,w
   569  0034  3EC2               	addlw	(low (abc@tab1| 0))& (0+255)
   570  0035  0084               	movwf	4
   571  0036  1383               	bcf	3,7	;select IRP bank1
   572  0037  0180               	clrf	0
   573  0038  0A84               	incf	4,f
   574  0039  0180               	clrf	0
   575  003A  3001               	movlw	1
   576  003B  1683               	bsf	3,5	;RP0=1, select bank1
   577  003C  1303               	bcf	3,6	;RP1=0, select bank1
   578  003D  07E0               	addwf	abc@v^(0+128),f
   579  003E  1803               	skipnc
   580  003F  0AE1               	incf	(abc@v+1)^(0+128),f
   581  0040  3000               	movlw	0
   582  0041  07E1               	addwf	(abc@v+1)^(0+128),f
   583  0042  0861               	movf	(abc@v+1)^(0+128),w
   584  0043  3A80               	xorlw	128
   585  0044  00FF               	movwf	127
   586  0045  3080               	movlw	128
   587  0046  027F               	subwf	127,w
   588  0047  1D03               	skipz
   589  0048  284B               	goto	u49_25
   590  0049  300F               	movlw	15
   591  004A  0260               	subwf	abc@v^(0+128),w
   592  004B                     u49_25:	
   593  004B  1C03               	skipc
   594  004C  282D               	goto	i1l995
   595  004D                     i1l1001:	
   596                           
   597                           ;newmain55.c: 118: }
   598                           ;newmain55.c: 128: int im=0;
   599  004D  1683               	bsf	3,5	;RP0=1, select bank1
   600  004E  1303               	bcf	3,6	;RP1=0, select bank1
   601  004F  01C0               	clrf	abc@im^(0+128)
   602  0050  01C1               	clrf	(abc@im+1)^(0+128)
   603                           
   604                           ;newmain55.c: 129: int min =0;
   605  0051  01E2               	clrf	abc@min^(0+128)
   606  0052  01E3               	clrf	(abc@min+1)^(0+128)
   607                           
   608                           ;newmain55.c: 131: int i=0,j=0;
   609  0053  01E6               	clrf	abc@i^(0+128)
   610  0054  01E7               	clrf	(abc@i+1)^(0+128)
   611  0055  01BE               	clrf	abc@j^(0+128)
   612  0056  01BF               	clrf	(abc@j+1)^(0+128)
   613                           
   614                           ;newmain55.c: 133: for (i=0;i<15;i++)
   615  0057  01E6               	clrf	abc@i^(0+128)
   616  0058  01E7               	clrf	(abc@i+1)^(0+128)
   617  0059  0867               	movf	(abc@i+1)^(0+128),w
   618  005A  3A80               	xorlw	128
   619  005B  00FF               	movwf	127
   620  005C  3080               	movlw	128
   621  005D  027F               	subwf	127,w
   622  005E  1D03               	skipz
   623  005F  2862               	goto	u50_25
   624  0060  300F               	movlw	15
   625  0061  0266               	subwf	abc@i^(0+128),w
   626  0062                     u50_25:	
   627  0062  1803               	btfsc	3,0
   628  0063  2884               	goto	i1l95
   629  0064                     i1l1007:	
   630                           
   631                           ;newmain55.c: 134: {
   632                           ;newmain55.c: 135: tab1[i]=0;
   633  0064  1683               	bsf	3,5	;RP0=1, select bank1
   634  0065  1303               	bcf	3,6	;RP1=0, select bank1
   635  0066  0866               	movf	abc@i^(0+128),w
   636  0067  1283               	bcf	3,5	;RP0=0, select bank0
   637  0068  1303               	bcf	3,6	;RP1=0, select bank0
   638  0069  00A5               	movwf	??_abc
   639  006A  0725               	addwf	??_abc,w
   640  006B  3EC2               	addlw	(low (abc@tab1| 0))& (0+255)
   641  006C  0084               	movwf	4
   642  006D  1383               	bcf	3,7	;select IRP bank1
   643  006E  0180               	clrf	0
   644  006F  0A84               	incf	4,f
   645  0070  0180               	clrf	0
   646  0071  3001               	movlw	1
   647  0072  1683               	bsf	3,5	;RP0=1, select bank1
   648  0073  1303               	bcf	3,6	;RP1=0, select bank1
   649  0074  07E6               	addwf	abc@i^(0+128),f
   650  0075  1803               	skipnc
   651  0076  0AE7               	incf	(abc@i+1)^(0+128),f
   652  0077  3000               	movlw	0
   653  0078  07E7               	addwf	(abc@i+1)^(0+128),f
   654  0079  0867               	movf	(abc@i+1)^(0+128),w
   655  007A  3A80               	xorlw	128
   656  007B  00FF               	movwf	127
   657  007C  3080               	movlw	128
   658  007D  027F               	subwf	127,w
   659  007E  1D03               	skipz
   660  007F  2882               	goto	u51_25
   661  0080  300F               	movlw	15
   662  0081  0266               	subwf	abc@i^(0+128),w
   663  0082                     u51_25:	
   664  0082  1C03               	skipc
   665  0083  2864               	goto	i1l1007
   666  0084                     i1l95:	
   667                           
   668                           ;newmain55.c: 136: }
   669                           ;newmain55.c: 139: if (RB1==1)
   670  0084  1283               	bcf	3,5	;RP0=0, select bank0
   671  0085  1303               	bcf	3,6	;RP1=0, select bank0
   672  0086  1C86               	btfss	6,1	;volatile
   673  0087  288E               	goto	i1l1015
   674                           
   675                           ;newmain55.c: 140: {
   676                           ;newmain55.c: 141: tab1[0]=1;
   677  0088  3001               	movlw	1
   678  0089  1683               	bsf	3,5	;RP0=1, select bank1
   679  008A  1303               	bcf	3,6	;RP1=0, select bank1
   680  008B  00C2               	movwf	abc@tab1^(0+128)
   681  008C  3000               	movlw	0
   682  008D  00C3               	movwf	(abc@tab1^(0+128)+1)
   683  008E                     i1l1015:	
   684                           
   685                           ;newmain55.c: 143: }
   686                           ;newmain55.c: 144: if (RB2==1)
   687  008E  1283               	bcf	3,5	;RP0=0, select bank0
   688  008F  1D06               	btfss	6,2	;volatile
   689  0090  2897               	goto	i1l1019
   690                           
   691                           ;newmain55.c: 145: {
   692                           ;newmain55.c: 146: tab1[1]=1;
   693  0091  3001               	movlw	1
   694  0092  1683               	bsf	3,5	;RP0=1, select bank1
   695  0093  1303               	bcf	3,6	;RP1=0, select bank1
   696  0094  00C4               	movwf	(abc@tab1^(0+128)+2)
   697  0095  3000               	movlw	0
   698  0096  00C5               	movwf	(abc@tab1^(0+128)+3)
   699  0097                     i1l1019:	
   700                           
   701                           ;newmain55.c: 148: }
   702                           ;newmain55.c: 149: if (RB3==1)
   703  0097  1283               	bcf	3,5	;RP0=0, select bank0
   704  0098  1D86               	btfss	6,3	;volatile
   705  0099  28A0               	goto	i1l1023
   706                           
   707                           ;newmain55.c: 150: {
   708                           ;newmain55.c: 151: tab1[2]=1;
   709  009A  3001               	movlw	1
   710  009B  1683               	bsf	3,5	;RP0=1, select bank1
   711  009C  1303               	bcf	3,6	;RP1=0, select bank1
   712  009D  00C6               	movwf	(abc@tab1^(0+128)+4)
   713  009E  3000               	movlw	0
   714  009F  00C7               	movwf	(abc@tab1^(0+128)+5)
   715  00A0                     i1l1023:	
   716                           
   717                           ;newmain55.c: 153: }
   718                           ;newmain55.c: 154: if (RB4==1)
   719  00A0  1283               	bcf	3,5	;RP0=0, select bank0
   720  00A1  1E06               	btfss	6,4	;volatile
   721  00A2  28A9               	goto	i1l1027
   722                           
   723                           ;newmain55.c: 155: {
   724                           ;newmain55.c: 156: tab1[3]=1;
   725  00A3  3001               	movlw	1
   726  00A4  1683               	bsf	3,5	;RP0=1, select bank1
   727  00A5  1303               	bcf	3,6	;RP1=0, select bank1
   728  00A6  00C8               	movwf	(abc@tab1^(0+128)+6)
   729  00A7  3000               	movlw	0
   730  00A8  00C9               	movwf	(abc@tab1^(0+128)+7)
   731  00A9                     i1l1027:	
   732                           
   733                           ;newmain55.c: 158: }
   734                           ;newmain55.c: 159: if (RB5==1)
   735  00A9  1283               	bcf	3,5	;RP0=0, select bank0
   736  00AA  1E86               	btfss	6,5	;volatile
   737  00AB  28B2               	goto	i1l1031
   738                           
   739                           ;newmain55.c: 160: {
   740                           ;newmain55.c: 161: tab1[4]=1;
   741  00AC  3001               	movlw	1
   742  00AD  1683               	bsf	3,5	;RP0=1, select bank1
   743  00AE  1303               	bcf	3,6	;RP1=0, select bank1
   744  00AF  00CA               	movwf	(abc@tab1^(0+128)+8)
   745  00B0  3000               	movlw	0
   746  00B1  00CB               	movwf	(abc@tab1^(0+128)+9)
   747  00B2                     i1l1031:	
   748                           
   749                           ;newmain55.c: 163: }
   750                           ;newmain55.c: 164: if (RB6==1)
   751  00B2  1283               	bcf	3,5	;RP0=0, select bank0
   752  00B3  1F06               	btfss	6,6	;volatile
   753  00B4  28BB               	goto	i1l1035
   754                           
   755                           ;newmain55.c: 165: {
   756                           ;newmain55.c: 166: tab1[5]=1;
   757  00B5  3001               	movlw	1
   758  00B6  1683               	bsf	3,5	;RP0=1, select bank1
   759  00B7  1303               	bcf	3,6	;RP1=0, select bank1
   760  00B8  00CC               	movwf	(abc@tab1^(0+128)+10)
   761  00B9  3000               	movlw	0
   762  00BA  00CD               	movwf	(abc@tab1^(0+128)+11)
   763  00BB                     i1l1035:	
   764                           
   765                           ;newmain55.c: 168: }
   766                           ;newmain55.c: 169: if (RB7==1)
   767  00BB  1283               	bcf	3,5	;RP0=0, select bank0
   768  00BC  1F86               	btfss	6,7	;volatile
   769  00BD  28C4               	goto	i1l1039
   770                           
   771                           ;newmain55.c: 170: {
   772                           ;newmain55.c: 171: tab1[6]=1;
   773  00BE  3001               	movlw	1
   774  00BF  1683               	bsf	3,5	;RP0=1, select bank1
   775  00C0  1303               	bcf	3,6	;RP1=0, select bank1
   776  00C1  00CE               	movwf	(abc@tab1^(0+128)+12)
   777  00C2  3000               	movlw	0
   778  00C3  00CF               	movwf	(abc@tab1^(0+128)+13)
   779  00C4                     i1l1039:	
   780                           
   781                           ;newmain55.c: 173: }
   782                           ;newmain55.c: 174: if (RC0==1)
   783  00C4  1283               	bcf	3,5	;RP0=0, select bank0
   784  00C5  1C07               	btfss	7,0	;volatile
   785  00C6  28CD               	goto	i1l1043
   786                           
   787                           ;newmain55.c: 175: {
   788                           ;newmain55.c: 176: tab1[7]=1;
   789  00C7  3001               	movlw	1
   790  00C8  1683               	bsf	3,5	;RP0=1, select bank1
   791  00C9  1303               	bcf	3,6	;RP1=0, select bank1
   792  00CA  00D0               	movwf	(abc@tab1^(0+128)+14)
   793  00CB  3000               	movlw	0
   794  00CC  00D1               	movwf	(abc@tab1^(0+128)+15)
   795  00CD                     i1l1043:	
   796                           
   797                           ;newmain55.c: 178: }
   798                           ;newmain55.c: 179: if (RC1==1)
   799  00CD  1283               	bcf	3,5	;RP0=0, select bank0
   800  00CE  1C87               	btfss	7,1	;volatile
   801  00CF  28D6               	goto	i1l1047
   802                           
   803                           ;newmain55.c: 180: {
   804                           ;newmain55.c: 181: tab1[8]=1;
   805  00D0  3001               	movlw	1
   806  00D1  1683               	bsf	3,5	;RP0=1, select bank1
   807  00D2  1303               	bcf	3,6	;RP1=0, select bank1
   808  00D3  00D2               	movwf	(abc@tab1^(0+128)+16)
   809  00D4  3000               	movlw	0
   810  00D5  00D3               	movwf	(abc@tab1^(0+128)+17)
   811  00D6                     i1l1047:	
   812                           
   813                           ;newmain55.c: 183: }
   814                           ;newmain55.c: 184: if (RC2==1)
   815  00D6  1283               	bcf	3,5	;RP0=0, select bank0
   816  00D7  1D07               	btfss	7,2	;volatile
   817  00D8  28DF               	goto	i1l1051
   818                           
   819                           ;newmain55.c: 185: {
   820                           ;newmain55.c: 186: tab1[9]=1;
   821  00D9  3001               	movlw	1
   822  00DA  1683               	bsf	3,5	;RP0=1, select bank1
   823  00DB  1303               	bcf	3,6	;RP1=0, select bank1
   824  00DC  00D4               	movwf	(abc@tab1^(0+128)+18)
   825  00DD  3000               	movlw	0
   826  00DE  00D5               	movwf	(abc@tab1^(0+128)+19)
   827  00DF                     i1l1051:	
   828                           
   829                           ;newmain55.c: 188: }
   830                           ;newmain55.c: 189: if (RC3==1)
   831  00DF  1283               	bcf	3,5	;RP0=0, select bank0
   832  00E0  1D87               	btfss	7,3	;volatile
   833  00E1  28E8               	goto	i1l1055
   834                           
   835                           ;newmain55.c: 190: {
   836                           ;newmain55.c: 191: tab1[10]=1;
   837  00E2  3001               	movlw	1
   838  00E3  1683               	bsf	3,5	;RP0=1, select bank1
   839  00E4  1303               	bcf	3,6	;RP1=0, select bank1
   840  00E5  00D6               	movwf	(abc@tab1^(0+128)+20)
   841  00E6  3000               	movlw	0
   842  00E7  00D7               	movwf	(abc@tab1^(0+128)+21)
   843  00E8                     i1l1055:	
   844                           
   845                           ;newmain55.c: 193: }
   846                           ;newmain55.c: 194: if (RC4==1)
   847  00E8  1283               	bcf	3,5	;RP0=0, select bank0
   848  00E9  1E07               	btfss	7,4	;volatile
   849  00EA  28F1               	goto	i1l1059
   850                           
   851                           ;newmain55.c: 195: {
   852                           ;newmain55.c: 196: tab1[11]=1;
   853  00EB  3001               	movlw	1
   854  00EC  1683               	bsf	3,5	;RP0=1, select bank1
   855  00ED  1303               	bcf	3,6	;RP1=0, select bank1
   856  00EE  00D8               	movwf	(abc@tab1^(0+128)+22)
   857  00EF  3000               	movlw	0
   858  00F0  00D9               	movwf	(abc@tab1^(0+128)+23)
   859  00F1                     i1l1059:	
   860                           
   861                           ;newmain55.c: 198: }
   862                           ;newmain55.c: 199: if (RC5==1)
   863  00F1  1283               	bcf	3,5	;RP0=0, select bank0
   864  00F2  1E87               	btfss	7,5	;volatile
   865  00F3  28FA               	goto	i1l1063
   866                           
   867                           ;newmain55.c: 200: {
   868                           ;newmain55.c: 201: tab1[12]=1;
   869  00F4  3001               	movlw	1
   870  00F5  1683               	bsf	3,5	;RP0=1, select bank1
   871  00F6  1303               	bcf	3,6	;RP1=0, select bank1
   872  00F7  00DA               	movwf	(abc@tab1^(0+128)+24)
   873  00F8  3000               	movlw	0
   874  00F9  00DB               	movwf	(abc@tab1^(0+128)+25)
   875  00FA                     i1l1063:	
   876                           
   877                           ;newmain55.c: 203: }
   878                           ;newmain55.c: 204: if (RC6==1)
   879  00FA  1283               	bcf	3,5	;RP0=0, select bank0
   880  00FB  1F07               	btfss	7,6	;volatile
   881  00FC  2903               	goto	i1l1067
   882                           
   883                           ;newmain55.c: 205: {
   884                           ;newmain55.c: 206: tab1[13]=1;
   885  00FD  3001               	movlw	1
   886  00FE  1683               	bsf	3,5	;RP0=1, select bank1
   887  00FF  1303               	bcf	3,6	;RP1=0, select bank1
   888  0100  00DC               	movwf	(abc@tab1^(0+128)+26)
   889  0101  3000               	movlw	0
   890  0102  00DD               	movwf	(abc@tab1^(0+128)+27)
   891  0103                     i1l1067:	
   892                           
   893                           ;newmain55.c: 208: }
   894                           ;newmain55.c: 209: if (RC7==1)
   895  0103  1283               	bcf	3,5	;RP0=0, select bank0
   896  0104  1F87               	btfss	7,7	;volatile
   897  0105  290C               	goto	i1l1071
   898                           
   899                           ;newmain55.c: 210: {
   900                           ;newmain55.c: 211: tab1[14]=1;
   901  0106  3001               	movlw	1
   902  0107  1683               	bsf	3,5	;RP0=1, select bank1
   903  0108  1303               	bcf	3,6	;RP1=0, select bank1
   904  0109  00DE               	movwf	(abc@tab1^(0+128)+28)
   905  010A  3000               	movlw	0
   906  010B  00DF               	movwf	(abc@tab1^(0+128)+29)
   907  010C                     i1l1071:	
   908                           
   909                           ;newmain55.c: 213: }
   910                           ;newmain55.c: 215: min=selection(tab1,tab2);
   911  010C  30A0               	movlw	(low (abc@tab2| 0))& (0+255)
   912  010D  1283               	bcf	3,5	;RP0=0, select bank0
   913  010E  00A5               	movwf	??_abc
   914  010F  0825               	movf	??_abc,w
   915  0110  00F0               	movwf	selection@tab2
   916  0111  30C2               	movlw	(low (abc@tab1| 0))& (0+255)
   917  0112  120A  118A  2237  120A  118A  	fcall	_selection
   918  0117  0871               	movf	?_selection+1,w
   919  0118  1683               	bsf	3,5	;RP0=1, select bank1
   920  0119  1303               	bcf	3,6	;RP1=0, select bank1
   921  011A  00E3               	movwf	(abc@min+1)^(0+128)
   922  011B  0870               	movf	?_selection,w
   923  011C  00E2               	movwf	abc@min^(0+128)
   924                           
   925                           ;newmain55.c: 219: tab2[min]=tab2[min]+1;
   926  011D  0862               	movf	abc@min^(0+128),w
   927  011E  1283               	bcf	3,5	;RP0=0, select bank0
   928  011F  1303               	bcf	3,6	;RP1=0, select bank0
   929  0120  00A5               	movwf	??_abc
   930  0121  0725               	addwf	??_abc,w
   931  0122  3EA0               	addlw	(low (abc@tab2| 0))& (0+255)
   932  0123  0084               	movwf	4
   933  0124  1383               	bcf	3,7	;select IRP bank1
   934  0125  0800               	movf	0,w
   935  0126  00A6               	movwf	??_abc+1
   936  0127  0A84               	incf	4,f
   937  0128  0800               	movf	0,w
   938  0129  00A7               	movwf	??_abc+2
   939  012A  0826               	movf	??_abc+1,w
   940  012B  3E01               	addlw	1
   941  012C  00A8               	movwf	??_abc+3
   942  012D  0827               	movf	??_abc+2,w
   943  012E  1803               	skipnc
   944  012F  3E01               	addlw	1
   945  0130  3E00               	addlw	0
   946  0131  00A9               	movwf	??_abc+4
   947  0132  1683               	bsf	3,5	;RP0=1, select bank1
   948  0133  1303               	bcf	3,6	;RP1=0, select bank1
   949  0134  0862               	movf	abc@min^(0+128),w
   950  0135  1283               	bcf	3,5	;RP0=0, select bank0
   951  0136  1303               	bcf	3,6	;RP1=0, select bank0
   952  0137  00AA               	movwf	??_abc+5
   953  0138  072A               	addwf	??_abc+5,w
   954  0139  3EA0               	addlw	(low (abc@tab2| 0))& (0+255)
   955  013A  0084               	movwf	4
   956  013B  0828               	movf	??_abc+3,w
   957  013C  0080               	movwf	0
   958  013D  0A84               	incf	4,f
   959  013E  0829               	movf	??_abc+4,w
   960  013F  0080               	movwf	0
   961                           
   962                           ;newmain55.c: 220: int q ;
   963                           ;newmain55.c: 221: for (q=0;q<15;q++)
   964  0140  1683               	bsf	3,5	;RP0=1, select bank1
   965  0141  1303               	bcf	3,6	;RP1=0, select bank1
   966  0142  01E4               	clrf	abc@q^(0+128)
   967  0143  01E5               	clrf	(abc@q+1)^(0+128)
   968  0144  0865               	movf	(abc@q+1)^(0+128),w
   969  0145  3A80               	xorlw	128
   970  0146  00FF               	movwf	127
   971  0147  3080               	movlw	128
   972  0148  027F               	subwf	127,w
   973  0149  1D03               	skipz
   974  014A  294D               	goto	u67_25
   975  014B  300F               	movlw	15
   976  014C  0264               	subwf	abc@q^(0+128),w
   977  014D                     u67_25:	
   978  014D  1803               	btfsc	3,0
   979  014E  296F               	goto	i1l1087
   980  014F                     i1l1081:	
   981                           
   982                           ;newmain55.c: 222: {
   983                           ;newmain55.c: 223: tab1[q]=0;
   984  014F  1683               	bsf	3,5	;RP0=1, select bank1
   985  0150  1303               	bcf	3,6	;RP1=0, select bank1
   986  0151  0864               	movf	abc@q^(0+128),w
   987  0152  1283               	bcf	3,5	;RP0=0, select bank0
   988  0153  1303               	bcf	3,6	;RP1=0, select bank0
   989  0154  00A5               	movwf	??_abc
   990  0155  0725               	addwf	??_abc,w
   991  0156  3EC2               	addlw	(low (abc@tab1| 0))& (0+255)
   992  0157  0084               	movwf	4
   993  0158  1383               	bcf	3,7	;select IRP bank1
   994  0159  0180               	clrf	0
   995  015A  0A84               	incf	4,f
   996  015B  0180               	clrf	0
   997  015C  3001               	movlw	1
   998  015D  1683               	bsf	3,5	;RP0=1, select bank1
   999  015E  1303               	bcf	3,6	;RP1=0, select bank1
  1000  015F  07E4               	addwf	abc@q^(0+128),f
  1001  0160  1803               	skipnc
  1002  0161  0AE5               	incf	(abc@q+1)^(0+128),f
  1003  0162  3000               	movlw	0
  1004  0163  07E5               	addwf	(abc@q+1)^(0+128),f
  1005  0164  0865               	movf	(abc@q+1)^(0+128),w
  1006  0165  3A80               	xorlw	128
  1007  0166  00FF               	movwf	127
  1008  0167  3080               	movlw	128
  1009  0168  027F               	subwf	127,w
  1010  0169  1D03               	skipz
  1011  016A  296D               	goto	u68_25
  1012  016B  300F               	movlw	15
  1013  016C  0264               	subwf	abc@q^(0+128),w
  1014  016D                     u68_25:	
  1015  016D  1C03               	skipc
  1016  016E  294F               	goto	i1l1081
  1017  016F                     i1l1087:	
  1018                           
  1019                           ;newmain55.c: 224: }
  1020                           ;newmain55.c: 227: im= min+1;
  1021  016F  1683               	bsf	3,5	;RP0=1, select bank1
  1022  0170  1303               	bcf	3,6	;RP1=0, select bank1
  1023  0171  0862               	movf	abc@min^(0+128),w
  1024  0172  3E01               	addlw	1
  1025  0173  00C0               	movwf	abc@im^(0+128)
  1026  0174  0863               	movf	(abc@min+1)^(0+128),w
  1027  0175  1803               	skipnc
  1028  0176  3E01               	addlw	1
  1029  0177  3E00               	addlw	0
  1030  0178  00C1               	movwf	(abc@im+1)^(0+128)
  1031                           
  1032                           ;newmain55.c: 228: afficher(im);
  1033  0179  0841               	movf	(abc@im+1)^(0+128),w
  1034  017A  00F1               	movwf	afficher@im+1
  1035  017B  0840               	movf	abc@im^(0+128),w
  1036  017C  00F0               	movwf	afficher@im
  1037  017D  120A  118A  219A  120A  118A  	fcall	_afficher
  1038                           
  1039                           ;newmain55.c: 230: attente();
  1040  0182  120A  118A  22E0  120A  118A  	fcall	i1_attente
  1041                           
  1042                           ;newmain55.c: 231: attente();
  1043  0187  120A  118A  22E0  120A  118A  	fcall	i1_attente
  1044                           
  1045                           ;newmain55.c: 233: RE0=1 ;
  1046  018C  1283               	bcf	3,5	;RP0=0, select bank0
  1047  018D  1303               	bcf	3,6	;RP1=0, select bank0
  1048  018E  1409               	bsf	9,0	;volatile
  1049  018F                     i1l113:	
  1050  018F  082E               	movf	??_abc+9,w
  1051  0190  00FF               	movwf	127
  1052  0191  082D               	movf	??_abc+8,w
  1053  0192  008A               	movwf	10
  1054  0193  082C               	movf	??_abc+7,w
  1055  0194  0084               	movwf	4
  1056  0195  0E2B               	swapf	(??_abc+6)^0,w
  1057  0196  0083               	movwf	3
  1058  0197  0EFE               	swapf	126,f
  1059  0198  0E7E               	swapf	126,w
  1060  0199  0009               	retfie
  1061  019A                     __end_of_abc:	
  1062                           
  1063                           	psect	intentry
  1064  0004                     __pintentry:	
  1065                           ;incstack = 0
  1066                           ; Regs used in _abc: [wreg-fsr0h+status,2+status,0+btemp+1+pclath+cstack]
  1067                           
  1068  0004                     interrupt_function:	
  1069  007E                     saved_w	set	btemp
  1070  0004  00FE               	movwf	btemp
  1071  0005  0E03               	swapf	3,w
  1072  0006  1283               	bcf	3,5	;RP0=0, select bank0
  1073  0007  1303               	bcf	3,6	;RP1=0, select bank0
  1074  0008  00AB               	movwf	??_abc+6
  1075  0009  0804               	movf	4,w
  1076  000A  00AC               	movwf	??_abc+7
  1077  000B  080A               	movf	10,w
  1078  000C  00AD               	movwf	??_abc+8
  1079  000D  087F               	movf	btemp+1,w
  1080  000E  00AE               	movwf	??_abc+9
  1081  000F  120A  118A  2819   	ljmp	_abc
  1082                           
  1083                           	psect	text3
  1084  02E0                     __ptext3:	
  1085 ;; *************** function i1_attente *****************
  1086 ;; Defined at:
  1087 ;;		line 91 in file "newmain55.c"
  1088 ;; Parameters:    Size  Location     Type
  1089 ;;		None
  1090 ;; Auto vars:     Size  Location     Type
  1091 ;;  attente         2    2[COMMON] int 
  1092 ;;  attente         2    0[COMMON] int 
  1093 ;; Return value:  Size  Location     Type
  1094 ;;                  1    wreg      void 
  1095 ;; Registers used:
  1096 ;;		wreg, status,2, btemp+1
  1097 ;; Tracked objects:
  1098 ;;		On entry : 0/0
  1099 ;;		On exit  : 0/0
  1100 ;;		Unchanged: 0/0
  1101 ;; Data sizes:     COMMON   BANK0   BANK1   BANK3   BANK2
  1102 ;;      Params:         0       0       0       0       0
  1103 ;;      Locals:         4       0       0       0       0
  1104 ;;      Temps:          0       0       0       0       0
  1105 ;;      Totals:         4       0       0       0       0
  1106 ;;Total ram usage:        4 bytes
  1107 ;; Hardware stack levels used:    1
  1108 ;; This function calls:
  1109 ;;		Nothing
  1110 ;; This function is called by:
  1111 ;;		_abc
  1112 ;; This function uses a non-reentrant model
  1113 ;;
  1114                           
  1115                           
  1116                           ;psect for function i1_attente
  1117  02E0                     i1_attente:	
  1118                           
  1119                           ;incstack = 0
  1120                           ; Regs used in i1_attente: [wreg+status,2+btemp+1]
  1121  02E0  01F0               	clrf	i1attente@i
  1122  02E1  01F1               	clrf	i1attente@i+1
  1123  02E2  01F2               	clrf	i1attente@j
  1124  02E3  01F3               	clrf	i1attente@j+1
  1125                           
  1126                           ;newmain55.c: 93: for ( i=0; i<255;i++)
  1127  02E4  01F0               	clrf	i1attente@i
  1128  02E5  01F1               	clrf	i1attente@i+1
  1129  02E6                     L2:	
  1130  02E6  0871               	movf	i1attente@i+1,w
  1131  02E7  3A80               	xorlw	128
  1132  02E8  00FF               	movwf	127
  1133  02E9  3080               	movlw	128
  1134  02EA  027F               	subwf	127,w
  1135  02EB  1D03               	skipz
  1136  02EC  2AEF               	goto	u43_25
  1137  02ED  30FF               	movlw	255
  1138  02EE  0270               	subwf	i1attente@i,w
  1139  02EF                     u43_25:	
  1140  02EF  1803               	btfsc	3,0
  1141  02F0  0008               	return
  1142                           
  1143                           ;newmain55.c: 94: {
  1144                           ;newmain55.c: 95: for ( j=0; j<100;j++)
  1145  02F1  01F2               	clrf	i1attente@j
  1146  02F2  01F3               	clrf	i1attente@j+1
  1147  02F3  0873               	movf	i1attente@j+1,w
  1148  02F4  3A80               	xorlw	128
  1149  02F5  00FF               	movwf	127
  1150  02F6  3080               	movlw	128
  1151  02F7  027F               	subwf	127,w
  1152  02F8  1D03               	skipz
  1153  02F9  2AFC               	goto	u44_25
  1154  02FA  3064               	movlw	100
  1155  02FB  0272               	subwf	i1attente@j,w
  1156  02FC                     u44_25:	
  1157  02FC  1803               	btfsc	3,0
  1158  02FD  2B0F               	goto	i1l977
  1159  02FE                     i1l973:	
  1160                           
  1161                           ;newmain55.c: 96: {
  1162  02FE  3001               	movlw	1
  1163  02FF  07F2               	addwf	i1attente@j,f
  1164  0300  1803               	skipnc
  1165  0301  0AF3               	incf	i1attente@j+1,f
  1166  0302  3000               	movlw	0
  1167  0303  07F3               	addwf	i1attente@j+1,f
  1168  0304  0873               	movf	i1attente@j+1,w
  1169  0305  3A80               	xorlw	128
  1170  0306  00FF               	movwf	127
  1171  0307  3080               	movlw	128
  1172  0308  027F               	subwf	127,w
  1173  0309  1D03               	skipz
  1174  030A  2B0D               	goto	u45_25
  1175  030B  3064               	movlw	100
  1176  030C  0272               	subwf	i1attente@j,w
  1177  030D                     u45_25:	
  1178  030D  1C03               	skipc
  1179  030E  2AFE               	goto	i1l973
  1180  030F                     i1l977:	
  1181  030F  3001               	movlw	1
  1182  0310  07F0               	addwf	i1attente@i,f
  1183  0311  1803               	skipnc
  1184  0312  0AF1               	incf	i1attente@i+1,f
  1185  0313  3000               	movlw	0
  1186  0314  07F1               	addwf	i1attente@i+1,f
  1187  0315  2AE6               	goto	L2
  1188  0316                     __end_ofi1_attente:	
  1189                           
  1190                           	psect	text4
  1191  0237                     __ptext4:	
  1192 ;; *************** function _selection *****************
  1193 ;; Defined at:
  1194 ;;		line 10 in file "newmain55.c"
  1195 ;; Parameters:    Size  Location     Type
  1196 ;;  tab1            1    wreg     PTR int 
  1197 ;;		 -> abc@tab1(30), 
  1198 ;;  tab2            1    0[COMMON] PTR int 
  1199 ;;		 -> abc@tab2(30), 
  1200 ;; Auto vars:     Size  Location     Type
  1201 ;;  tab1            1    0[BANK0 ] PTR int 
  1202 ;;		 -> abc@tab1(30), 
  1203 ;;  i               2    3[BANK0 ] int 
  1204 ;;  min             2    1[BANK0 ] int 
  1205 ;; Return value:  Size  Location     Type
  1206 ;;                  2    0[COMMON] int 
  1207 ;; Registers used:
  1208 ;;		wreg, fsr0l, fsr0h, status,2, status,0, btemp+1
  1209 ;; Tracked objects:
  1210 ;;		On entry : 0/0
  1211 ;;		On exit  : 0/0
  1212 ;;		Unchanged: 0/0
  1213 ;; Data sizes:     COMMON   BANK0   BANK1   BANK3   BANK2
  1214 ;;      Params:         2       0       0       0       0
  1215 ;;      Locals:         0       5       0       0       0
  1216 ;;      Temps:          9       0       0       0       0
  1217 ;;      Totals:        11       5       0       0       0
  1218 ;;Total ram usage:       16 bytes
  1219 ;; Hardware stack levels used:    1
  1220 ;; This function calls:
  1221 ;;		Nothing
  1222 ;; This function is called by:
  1223 ;;		_abc
  1224 ;; This function uses a non-reentrant model
  1225 ;;
  1226                           
  1227                           
  1228                           ;psect for function _selection
  1229  0237                     _selection:	
  1230                           
  1231                           ;incstack = 0
  1232                           ; Regs used in _selection: [wreg-fsr0h+status,2+status,0+btemp+1]
  1233                           ;selection@tab1 stored from wreg
  1234  0237  1283               	bcf	3,5	;RP0=0, select bank0
  1235  0238  1303               	bcf	3,6	;RP1=0, select bank0
  1236  0239  00A0               	movwf	selection@tab1
  1237  023A  01A3               	clrf	selection@i
  1238  023B  01A4               	clrf	selection@i+1
  1239  023C  01A1               	clrf	selection@min
  1240  023D  01A2               	clrf	selection@min+1
  1241                           
  1242                           ;newmain55.c: 20: for(i=0;i<15;i++)
  1243  023E  01A3               	clrf	selection@i
  1244  023F  01A4               	clrf	selection@i+1
  1245  0240  0824               	movf	selection@i+1,w
  1246  0241  3A80               	xorlw	128
  1247  0242  00FF               	movwf	127
  1248  0243  3080               	movlw	128
  1249  0244  027F               	subwf	127,w
  1250  0245  1D03               	skipz
  1251  0246  2A49               	goto	u35_25
  1252  0247  300F               	movlw	15
  1253  0248  0223               	subwf	selection@i,w
  1254  0249                     u35_25:	
  1255  0249  1803               	btfsc	3,0
  1256  024A  2A9B               	goto	i1l875
  1257  024B                     i1l867:	
  1258                           
  1259                           ;newmain55.c: 21: {
  1260                           ;newmain55.c: 22: if((tab1[i]==1)&&((tab2[i]) < (tab2[min])))
  1261  024B  1283               	bcf	3,5	;RP0=0, select bank0
  1262  024C  1303               	bcf	3,6	;RP1=0, select bank0
  1263  024D  0823               	movf	selection@i,w
  1264  024E  00F2               	movwf	??_selection
  1265  024F  0772               	addwf	??_selection,w
  1266  0250  0720               	addwf	selection@tab1,w
  1267  0251  00F3               	movwf	??_selection+1
  1268  0252  0873               	movf	??_selection+1,w
  1269  0253  0084               	movwf	4
  1270  0254  1383               	bcf	3,7	;select IRP bank0
  1271  0255  0800               	movf	0,w
  1272  0256  00F4               	movwf	??_selection+2
  1273  0257  0A84               	incf	4,f
  1274  0258  0800               	movf	0,w
  1275  0259  00F5               	movwf	??_selection+3
  1276  025A  0374               	decf	??_selection+2,w
  1277  025B  0475               	iorwf	??_selection+3,w
  1278  025C  1D03               	btfss	3,2
  1279  025D  2A88               	goto	i1l59
  1280  025E  0821               	movf	selection@min,w
  1281  025F  00F2               	movwf	??_selection
  1282  0260  0772               	addwf	??_selection,w
  1283  0261  0770               	addwf	selection@tab2,w
  1284  0262  00F3               	movwf	??_selection+1
  1285  0263  0873               	movf	??_selection+1,w
  1286  0264  0084               	movwf	4
  1287  0265  0800               	movf	0,w
  1288  0266  00F4               	movwf	??_selection+2
  1289  0267  0A84               	incf	4,f
  1290  0268  0800               	movf	0,w
  1291  0269  00F5               	movwf	??_selection+3
  1292  026A  0823               	movf	selection@i,w
  1293  026B  00F6               	movwf	??_selection+4
  1294  026C  0776               	addwf	??_selection+4,w
  1295  026D  0770               	addwf	selection@tab2,w
  1296  026E  00F7               	movwf	??_selection+5
  1297  026F  0877               	movf	??_selection+5,w
  1298  0270  0084               	movwf	4
  1299  0271  0800               	movf	0,w
  1300  0272  00F8               	movwf	??_selection+6
  1301  0273  0A84               	incf	4,f
  1302  0274  0800               	movf	0,w
  1303  0275  00F9               	movwf	??_selection+7
  1304  0276  0879               	movf	??_selection+7,w
  1305  0277  3A80               	xorlw	128
  1306  0278  00FA               	movwf	??_selection+8
  1307  0279  0875               	movf	??_selection+3,w
  1308  027A  3A80               	xorlw	128
  1309  027B  027A               	subwf	??_selection+8,w
  1310  027C  1D03               	skipz
  1311  027D  2A80               	goto	u37_25
  1312  027E  0874               	movf	??_selection+2,w
  1313  027F  0278               	subwf	??_selection+6,w
  1314  0280                     u37_25:	
  1315  0280  1803               	skipnc
  1316  0281  2A88               	goto	i1l59
  1317                           
  1318                           ;newmain55.c: 23: {
  1319                           ;newmain55.c: 26: min=i;
  1320  0282  1283               	bcf	3,5	;RP0=0, select bank0
  1321  0283  1303               	bcf	3,6	;RP1=0, select bank0
  1322  0284  0824               	movf	selection@i+1,w
  1323  0285  00A2               	movwf	selection@min+1
  1324  0286  0823               	movf	selection@i,w
  1325  0287  00A1               	movwf	selection@min
  1326  0288                     i1l59:	
  1327  0288  3001               	movlw	1
  1328  0289  1283               	bcf	3,5	;RP0=0, select bank0
  1329  028A  1303               	bcf	3,6	;RP1=0, select bank0
  1330  028B  07A3               	addwf	selection@i,f
  1331  028C  1803               	skipnc
  1332  028D  0AA4               	incf	selection@i+1,f
  1333  028E  3000               	movlw	0
  1334  028F  07A4               	addwf	selection@i+1,f
  1335  0290  0824               	movf	selection@i+1,w
  1336  0291  3A80               	xorlw	128
  1337  0292  00FF               	movwf	127
  1338  0293  3080               	movlw	128
  1339  0294  027F               	subwf	127,w
  1340  0295  1D03               	skipz
  1341  0296  2A99               	goto	u38_25
  1342  0297  300F               	movlw	15
  1343  0298  0223               	subwf	selection@i,w
  1344  0299                     u38_25:	
  1345  0299  1C03               	skipc
  1346  029A  2A4B               	goto	i1l867
  1347  029B                     i1l875:	
  1348                           
  1349                           ;newmain55.c: 27: }}
  1350                           ;newmain55.c: 40: return min;
  1351  029B  1283               	bcf	3,5	;RP0=0, select bank0
  1352  029C  1303               	bcf	3,6	;RP1=0, select bank0
  1353  029D  0822               	movf	selection@min+1,w
  1354  029E  00F1               	movwf	?_selection+1
  1355  029F  0821               	movf	selection@min,w
  1356  02A0  00F0               	movwf	?_selection
  1357  02A1  0008               	return
  1358  02A2                     __end_of_selection:	
  1359                           
  1360                           	psect	text5
  1361  019A                     __ptext5:	
  1362 ;; *************** function _afficher *****************
  1363 ;; Defined at:
  1364 ;;		line 48 in file "newmain55.c"
  1365 ;; Parameters:    Size  Location     Type
  1366 ;;  im              2    0[COMMON] int 
  1367 ;; Auto vars:     Size  Location     Type
  1368 ;;		None
  1369 ;; Return value:  Size  Location     Type
  1370 ;;                  1    wreg      void 
  1371 ;; Registers used:
  1372 ;;		wreg, fsr0l, fsr0h, status,2, status,0
  1373 ;; Tracked objects:
  1374 ;;		On entry : 0/0
  1375 ;;		On exit  : 0/0
  1376 ;;		Unchanged: 0/0
  1377 ;; Data sizes:     COMMON   BANK0   BANK1   BANK3   BANK2
  1378 ;;      Params:         2       0       0       0       0
  1379 ;;      Locals:         0       0       0       0       0
  1380 ;;      Temps:          0       0       0       0       0
  1381 ;;      Totals:         2       0       0       0       0
  1382 ;;Total ram usage:        2 bytes
  1383 ;; Hardware stack levels used:    1
  1384 ;; This function calls:
  1385 ;;		Nothing
  1386 ;; This function is called by:
  1387 ;;		_abc
  1388 ;; This function uses a non-reentrant model
  1389 ;;
  1390                           
  1391                           
  1392                           ;psect for function _afficher
  1393  019A                     _afficher:	
  1394                           
  1395                           ;newmain55.c: 51: switch (im)
  1396                           
  1397                           ;incstack = 0
  1398                           ; Regs used in _afficher: [wreg-fsr0h+status,2+status,0]
  1399  019A  29FF               	goto	i1l935
  1400  019B                     i1l881:	
  1401                           ;newmain55.c: 52: {
  1402                           ;newmain55.c: 53: case 0 : PORTA=0x00; PORTD=0x00;
  1403                           
  1404  019B  1283               	bcf	3,5	;RP0=0, select bank0
  1405  019C  1303               	bcf	3,6	;RP1=0, select bank0
  1406  019D  0185               	clrf	5	;volatile
  1407  019E  0188               	clrf	8	;volatile
  1408                           
  1409                           ;newmain55.c: 54: break;
  1410  019F  0008               	return
  1411  01A0                     i1l883:	
  1412                           ;newmain55.c: 55: case 1 : PORTA=0x01; PORTD=0x00;
  1413                           
  1414  01A0  3001               	movlw	1
  1415  01A1  1283               	bcf	3,5	;RP0=0, select bank0
  1416  01A2  1303               	bcf	3,6	;RP1=0, select bank0
  1417  01A3  0085               	movwf	5	;volatile
  1418  01A4  0188               	clrf	8	;volatile
  1419                           
  1420                           ;newmain55.c: 56: break;
  1421  01A5  0008               	return
  1422  01A6                     i1l887:	
  1423                           ;newmain55.c: 57: case 2 : PORTA= 0x02; PORTD= 0x00;
  1424                           
  1425  01A6  3002               	movlw	2
  1426  01A7  1283               	bcf	3,5	;RP0=0, select bank0
  1427  01A8  1303               	bcf	3,6	;RP1=0, select bank0
  1428  01A9  0085               	movwf	5	;volatile
  1429  01AA  0188               	clrf	8	;volatile
  1430                           
  1431                           ;newmain55.c: 58: break;
  1432  01AB  0008               	return
  1433  01AC                     i1l891:	
  1434                           ;newmain55.c: 59: case 3 : PORTA= 0x03; PORTD= 0x00;
  1435                           
  1436  01AC  3003               	movlw	3
  1437  01AD  1283               	bcf	3,5	;RP0=0, select bank0
  1438  01AE  1303               	bcf	3,6	;RP1=0, select bank0
  1439  01AF  0085               	movwf	5	;volatile
  1440  01B0  0188               	clrf	8	;volatile
  1441                           
  1442                           ;newmain55.c: 60: break;
  1443  01B1  0008               	return
  1444  01B2                     i1l895:	
  1445                           ;newmain55.c: 61: case 4 : PORTA= 0x04; PORTD= 0x00;
  1446                           
  1447  01B2  3004               	movlw	4
  1448  01B3  1283               	bcf	3,5	;RP0=0, select bank0
  1449  01B4  1303               	bcf	3,6	;RP1=0, select bank0
  1450  01B5  0085               	movwf	5	;volatile
  1451  01B6  0188               	clrf	8	;volatile
  1452                           
  1453                           ;newmain55.c: 62: break;
  1454  01B7  0008               	return
  1455  01B8                     i1l899:	
  1456                           ;newmain55.c: 63: case 5: PORTA= 0x05; PORTD= 0x00;
  1457                           
  1458  01B8  3005               	movlw	5
  1459  01B9  1283               	bcf	3,5	;RP0=0, select bank0
  1460  01BA  1303               	bcf	3,6	;RP1=0, select bank0
  1461  01BB  0085               	movwf	5	;volatile
  1462  01BC  0188               	clrf	8	;volatile
  1463                           
  1464                           ;newmain55.c: 64: break;
  1465  01BD  0008               	return
  1466  01BE                     i1l903:	
  1467                           ;newmain55.c: 65: case 6 : PORTA= 0x06; PORTD= 0x00;
  1468                           
  1469  01BE  3006               	movlw	6
  1470  01BF  1283               	bcf	3,5	;RP0=0, select bank0
  1471  01C0  1303               	bcf	3,6	;RP1=0, select bank0
  1472  01C1  0085               	movwf	5	;volatile
  1473  01C2  0188               	clrf	8	;volatile
  1474                           
  1475                           ;newmain55.c: 66: break;
  1476  01C3  0008               	return
  1477  01C4                     i1l907:	
  1478                           ;newmain55.c: 67: case 7 : PORTA= 0x07; PORTD= 0x00;
  1479                           
  1480  01C4  3007               	movlw	7
  1481  01C5  1283               	bcf	3,5	;RP0=0, select bank0
  1482  01C6  1303               	bcf	3,6	;RP1=0, select bank0
  1483  01C7  0085               	movwf	5	;volatile
  1484  01C8  0188               	clrf	8	;volatile
  1485                           
  1486                           ;newmain55.c: 68: break;
  1487  01C9  0008               	return
  1488  01CA                     i1l911:	
  1489                           ;newmain55.c: 69: case 8: PORTA= 0x08; PORTD= 0x00;
  1490                           
  1491  01CA  3008               	movlw	8
  1492  01CB  1283               	bcf	3,5	;RP0=0, select bank0
  1493  01CC  1303               	bcf	3,6	;RP1=0, select bank0
  1494  01CD  0085               	movwf	5	;volatile
  1495  01CE  0188               	clrf	8	;volatile
  1496                           
  1497                           ;newmain55.c: 70: break;
  1498  01CF  0008               	return
  1499  01D0                     i1l915:	
  1500                           ;newmain55.c: 71: case 9 : PORTA= 0x09; PORTD= 0x00;
  1501                           
  1502  01D0  3009               	movlw	9
  1503  01D1  1283               	bcf	3,5	;RP0=0, select bank0
  1504  01D2  1303               	bcf	3,6	;RP1=0, select bank0
  1505  01D3  0085               	movwf	5	;volatile
  1506  01D4  0188               	clrf	8	;volatile
  1507                           
  1508                           ;newmain55.c: 72: break;
  1509  01D5  0008               	return
  1510  01D6                     i1l919:	
  1511                           ;newmain55.c: 73: case 10 : PORTA= 0x00; PORTD= 0x01;
  1512                           
  1513  01D6  1283               	bcf	3,5	;RP0=0, select bank0
  1514  01D7  1303               	bcf	3,6	;RP1=0, select bank0
  1515  01D8  0185               	clrf	5	;volatile
  1516  01D9  3001               	movlw	1
  1517  01DA  0088               	movwf	8	;volatile
  1518                           
  1519                           ;newmain55.c: 74: break;
  1520  01DB  0008               	return
  1521  01DC                     i1l923:	
  1522                           ;newmain55.c: 75: case 11: PORTA= 0x01; PORTD= 0x01;
  1523                           
  1524  01DC  3001               	movlw	1
  1525  01DD  1283               	bcf	3,5	;RP0=0, select bank0
  1526  01DE  1303               	bcf	3,6	;RP1=0, select bank0
  1527  01DF  0085               	movwf	5	;volatile
  1528  01E0  3001               	movlw	1
  1529  01E1  0088               	movwf	8	;volatile
  1530                           
  1531                           ;newmain55.c: 76: break;
  1532  01E2  0008               	return
  1533  01E3                     i1l925:	
  1534                           ;newmain55.c: 77: case 12 : PORTA= 0x02; PORTD= 0x01;
  1535                           
  1536  01E3  3002               	movlw	2
  1537  01E4  1283               	bcf	3,5	;RP0=0, select bank0
  1538  01E5  1303               	bcf	3,6	;RP1=0, select bank0
  1539  01E6  0085               	movwf	5	;volatile
  1540  01E7  3001               	movlw	1
  1541  01E8  0088               	movwf	8	;volatile
  1542                           
  1543                           ;newmain55.c: 78: break;
  1544  01E9  0008               	return
  1545  01EA                     i1l927:	
  1546                           ;newmain55.c: 79: case 13 : PORTA= 0x03; PORTD= 0x01;
  1547                           
  1548  01EA  3003               	movlw	3
  1549  01EB  1283               	bcf	3,5	;RP0=0, select bank0
  1550  01EC  1303               	bcf	3,6	;RP1=0, select bank0
  1551  01ED  0085               	movwf	5	;volatile
  1552  01EE  3001               	movlw	1
  1553  01EF  0088               	movwf	8	;volatile
  1554                           
  1555                           ;newmain55.c: 80: break;
  1556  01F0  0008               	return
  1557  01F1                     i1l929:	
  1558                           ;newmain55.c: 81: case 14 : PORTA= 0x04; PORTD= 0x01;
  1559                           
  1560  01F1  3004               	movlw	4
  1561  01F2  1283               	bcf	3,5	;RP0=0, select bank0
  1562  01F3  1303               	bcf	3,6	;RP1=0, select bank0
  1563  01F4  0085               	movwf	5	;volatile
  1564  01F5  3001               	movlw	1
  1565  01F6  0088               	movwf	8	;volatile
  1566                           
  1567                           ;newmain55.c: 82: break;
  1568  01F7  0008               	return
  1569  01F8                     i1l931:	
  1570                           ;newmain55.c: 83: case 15 : PORTA= 0x05; PORTD= 0x01;
  1571                           
  1572  01F8  3005               	movlw	5
  1573  01F9  1283               	bcf	3,5	;RP0=0, select bank0
  1574  01FA  1303               	bcf	3,6	;RP1=0, select bank0
  1575  01FB  0085               	movwf	5	;volatile
  1576  01FC  3001               	movlw	1
  1577  01FD  0088               	movwf	8	;volatile
  1578                           
  1579                           ;newmain55.c: 86: }
  1580                           
  1581                           ;newmain55.c: 84: break;
  1582  01FE  0008               	return
  1583  01FF                     i1l935:	
  1584                           
  1585                           ; Switch on 2 bytes has been partitioned into a top level switch of size 1, and 1 sub-sw
      +                          itches
  1586                           ; Switch size 1, requested type "space"
  1587                           ; Number of cases is 1, Range of values is 0 to 0
  1588                           ; switch strategies available:
  1589                           ; Name         Instructions Cycles
  1590                           ; simple_byte            4     3 (average)
  1591                           ; direct_byte           11     8 (fixed)
  1592                           ; jumptable            260     6 (fixed)
  1593                           ;	Chosen strategy is simple_byte
  1594  01FF  0871               	movf	afficher@im+1,w
  1595  0200  3A00               	xorlw	0	; case 0
  1596  0201  1903               	skipnz
  1597  0202  2A04               	goto	i1l1143
  1598  0203  2A36               	goto	i1l81
  1599  0204                     i1l1143:	
  1600                           
  1601                           ; Switch size 1, requested type "space"
  1602                           ; Number of cases is 16, Range of values is 0 to 15
  1603                           ; switch strategies available:
  1604                           ; Name         Instructions Cycles
  1605                           ; simple_byte           49    25 (average)
  1606                           ; direct_byte           56     8 (fixed)
  1607                           ; jumptable            260     6 (fixed)
  1608                           ;	Chosen strategy is simple_byte
  1609  0204  0870               	movf	afficher@im,w
  1610  0205  3A00               	xorlw	0	; case 0
  1611  0206  1903               	skipnz
  1612  0207  299B               	goto	i1l881
  1613  0208  3A01               	xorlw	1	; case 1
  1614  0209  1903               	skipnz
  1615  020A  29A0               	goto	i1l883
  1616  020B  3A03               	xorlw	3	; case 2
  1617  020C  1903               	skipnz
  1618  020D  29A6               	goto	i1l887
  1619  020E  3A01               	xorlw	1	; case 3
  1620  020F  1903               	skipnz
  1621  0210  29AC               	goto	i1l891
  1622  0211  3A07               	xorlw	7	; case 4
  1623  0212  1903               	skipnz
  1624  0213  29B2               	goto	i1l895
  1625  0214  3A01               	xorlw	1	; case 5
  1626  0215  1903               	skipnz
  1627  0216  29B8               	goto	i1l899
  1628  0217  3A03               	xorlw	3	; case 6
  1629  0218  1903               	skipnz
  1630  0219  29BE               	goto	i1l903
  1631  021A  3A01               	xorlw	1	; case 7
  1632  021B  1903               	skipnz
  1633  021C  29C4               	goto	i1l907
  1634  021D  3A0F               	xorlw	15	; case 8
  1635  021E  1903               	skipnz
  1636  021F  29CA               	goto	i1l911
  1637  0220  3A01               	xorlw	1	; case 9
  1638  0221  1903               	skipnz
  1639  0222  29D0               	goto	i1l915
  1640  0223  3A03               	xorlw	3	; case 10
  1641  0224  1903               	skipnz
  1642  0225  29D6               	goto	i1l919
  1643  0226  3A01               	xorlw	1	; case 11
  1644  0227  1903               	skipnz
  1645  0228  29DC               	goto	i1l923
  1646  0229  3A07               	xorlw	7	; case 12
  1647  022A  1903               	skipnz
  1648  022B  29E3               	goto	i1l925
  1649  022C  3A01               	xorlw	1	; case 13
  1650  022D  1903               	skipnz
  1651  022E  29EA               	goto	i1l927
  1652  022F  3A03               	xorlw	3	; case 14
  1653  0230  1903               	skipnz
  1654  0231  29F1               	goto	i1l929
  1655  0232  3A01               	xorlw	1	; case 15
  1656  0233  1903               	skipnz
  1657  0234  29F8               	goto	i1l931
  1658  0235  2A36               	goto	i1l81
  1659  0236                     i1l81:	
  1660  0236  0008               	return
  1661  0237                     __end_of_afficher:	
  1662  007E                     btemp	set	126	;btemp
  1663  007E                     wtemp0	set	126


Data Sizes:
    Strings     0
    Constant    0
    Data        0
    BSS         0
    Persistent  0
    Stack       0

Auto Spaces:
    Space          Size  Autos    Used
    COMMON           14     11      11
    BANK0            80     21      21
    BANK1            80     72      72
    BANK3            96      0       0
    BANK2            96      0       0

Pointer List with Targets:

    selection@tab2	PTR int  size(1) Largest target is 30
		 -> abc@tab2(BANK1[30]), 

    selection@tab1	PTR int  size(1) Largest target is 30
		 -> abc@tab1(BANK1[30]), 


Critical Paths under _main in COMMON

    None.

Critical Paths under _abc in COMMON

    _abc->_selection

Critical Paths under _main in BANK0

    _main->_attente

Critical Paths under _abc in BANK0

    _abc->_selection

Critical Paths under _main in BANK1

    None.

Critical Paths under _abc in BANK1

    None.

Critical Paths under _main in BANK3

    None.

Critical Paths under _abc in BANK3

    None.

Critical Paths under _main in BANK2

    None.

Critical Paths under _abc in BANK2

    None.

Call Graph Tables:

 ---------------------------------------------------------------------------------
 (Depth) Function   	        Calls       Base Space   Used Autos Params    Refs
 ---------------------------------------------------------------------------------
 (0) _main                                                 2     2      0      95
                                             19 BANK0      2     2      0
                            _attente
 ---------------------------------------------------------------------------------
 (1) _attente                                              4     4      0      94
                                             15 BANK0      4     4      0
 ---------------------------------------------------------------------------------
 Estimated maximum stack depth 1
 ---------------------------------------------------------------------------------
 (Depth) Function   	        Calls       Base Space   Used Autos Params    Refs
 ---------------------------------------------------------------------------------
 (2) _abc                                                 82    82      0    1275
                                              5 BANK0     10    10      0
                                              0 BANK1     72    72      0
                           _afficher
                          _selection
                          i1_attente
 ---------------------------------------------------------------------------------
 (3) i1_attente                                            4     4      0      94
                                              0 COMMON     4     4      0
 ---------------------------------------------------------------------------------
 (3) _selection                                           16    14      2     305
                                              0 COMMON    11     9      2
                                              0 BANK0      5     5      0
 ---------------------------------------------------------------------------------
 (3) _afficher                                             2     0      2      75
                                              0 COMMON     2     0      2
 ---------------------------------------------------------------------------------
 Estimated maximum stack depth 3
 ---------------------------------------------------------------------------------

 Call Graph Graphs:

 _main (ROOT)
   _attente

 _abc (ROOT)
   _afficher
   _selection
   i1_attente

 Address spaces:
Name               Size   Autos  Total    Cost      Usage
BITCOMMON            E      0       0       0        0.0%
EEDATA             100      0       0       0        0.0%
NULL                 0      0       0       0        0.0%
CODE                 0      0       0       0        0.0%
COMMON               E      B       B       1       78.6%
BITSFR0              0      0       0       1        0.0%
SFR0                 0      0       0       1        0.0%
BITSFR1              0      0       0       2        0.0%
SFR1                 0      0       0       2        0.0%
STACK                0      0       0       2        0.0%
ABS                  0      0       0       3        0.0%
BITBANK0            50      0       0       4        0.0%
BITSFR3              0      0       0       4        0.0%
SFR3                 0      0       0       4        0.0%
BANK0               50     15      15       5       26.3%
BITSFR2              0      0       0       5        0.0%
SFR2                 0      0       0       5        0.0%
BITBANK1            50      0       0       6        0.0%
BANK1               50     48      48       7       90.0%
BITBANK3            60      0       0       8        0.0%
BANK3               60      0       0       9        0.0%
BITBANK2            60      0       0      10        0.0%
BANK2               60      0       0      11        0.0%
DATA                 0      0       0      12        0.0%


Microchip Technology PIC Macro Assembler V1.40 build -251452761 
Symbol Table                                                                                   Fri May 05 22:53:15 2017

                    l953 02C4                      l957 02D7                      _RB1 0031  
                    _RC0 0038                      _RB2 0032                      _RC1 0039  
                    _RB3 0033                      _RC2 003A                      _RB4 0034  
                    _RC3 003B                      _RB5 0035                      _RE0 0048  
                    _RC4 003C                      _RB6 0036                      _RE1 0049  
                    _RC5 003D                      _RB7 0037                      _RC6 003E  
                    _RC7 003F                      u405 02C2                      u415 02D5  
                    u395 02B3                      _abc 0019                      fsr0 0004  
                    indf 0000                     ?_abc 0070                     l1121 032C  
                   _INTF 0059                     i1l81 0236                     i1l59 0288  
                   i1l95 0084                     abc@i 00E6                     abc@j 00BE  
                   abc@q 00E4                     abc@v 00E0                     _main 0316  
                   btemp 007E                     start 0012                    ??_abc 0025  
             i1attente@i 0070               i1attente@j 0072                    ?_main 0070  
                  i1l113 018F                    i1l911 01CA                    i1l903 01BE  
                  i1l931 01F8                    i1l923 01DC                    i1l915 01D0  
                  i1l907 01C4                    i1l925 01E3                    i1l927 01EA  
                  i1l919 01D6                    i1l935 01FF                    i1l929 01F1  
                  i1l881 019B                    i1l891 01AC                    i1l883 01A0  
                  i1l875 029B                    i1l867 024B                    i1l973 02FE  
                  i1l895 01B2                    i1l887 01A6                    i1l977 030F  
                  i1l899 01B8                    i1l995 002D                    u50_25 0062  
                  _PORTA 0005                    _PORTD 0008                    u35_25 0249  
                  u43_25 02EF                    u51_25 0082                    u44_25 02FC  
                  u37_25 0280                    u45_25 030D                    u38_25 0299  
                  u48_25 002B                    _TRISA 0085                    _TRISB 0086  
                  u49_25 004B                    _TRISC 0087                    _TRISD 0088  
                  _TRISE 0089                    u67_25 014D                    u68_25 016D  
                  abc@im 00C0          __end_of_attente 02E0                    main@k 0033  
                  pclath 000A                    status 0003                    wtemp0 007E  
        __initialization 0015             __end_of_main 0332       __size_ofi1_attente 0036  
                 ??_main 0033                   i1l1001 004D                   i1l1031 00B2  
                 i1l1023 00A0                   i1l1015 008E                   i1l1007 0064  
                 i1l1051 00DF                   i1l1043 00CD                   i1l1035 00BB  
                 i1l1027 00A9                   i1l1019 0097                   i1l1143 0204  
                 i1l1071 010C                   i1l1063 00FA                   i1l1055 00E8  
                 i1l1047 00D6                   i1l1039 00C4                   i1l1081 014F  
                 i1l1067 0103                   i1l1059 00F1                   i1l1087 016F  
                 _INTCON 000B         __end_of_afficher 0237                   abc@min 00E2  
              ??_attente 002F                   saved_w 007E        __end_ofi1_attente 0316  
__end_of__initialization 0015           __pcstackCOMMON 0070               __pmaintext 0316  
             __pintentry 0004       __size_of_selection 006B                ?_afficher 0070  
             afficher@im 0070                  abc@tab1 00C2                  abc@tab2 00A0  
                __ptext1 02A2                  __ptext2 0019                  __ptext3 02E0  
                __ptext4 0237                  __ptext5 019A               ??_afficher 0072  
                _attente 02A2             __size_of_abc 0181     end_of_initialization 0015  
      __end_of_selection 02A2                i1_attente 02E0            selection@tab1 0020  
          selection@tab2 0070      start_initialization 0015              __end_of_abc 019A  
             ?i1_attente 0070                ___latbits 0002            __pcstackBANK0 0020  
          __pcstackBANK1 00A0        __size_of_afficher 009D                 ?_attente 0070  
             selection@i 0023        interrupt_function 0004              ??i1_attente 0070  
              _selection 0237             selection@min 0021               ?_selection 0070  
               _afficher 019A         __size_of_attente 003E            __size_of_main 001C  
               attente@i 002F                 attente@j 0031               _INTCONbits 000B  
               intlevel1 0000              ??_selection 0072  
